target datalayout = "e-m:e-p270:32:32-p271:32:32-p272:64:64-i64:64-i128:128-f80:128-n8:16:32:64-S128"
target triple = "x86_64-pc-linux-gnu"

%struct.nstime_t = type { i64, i32 }
%struct.tm = type { i32, i32, i32, i32, i32, i32, i32, i32, i32, i64, ptr }

@hf_gmtrailer_origcrc = internal global i32 0, align 4
@hf_gmtrailer_portid = internal global i32 0, align 4
@hf_gmtrailer_timestamp = internal global i32 0, align 4
@ett_gmtrailer = internal global i32 0, align 4
@proto_gmtrailer = internal global i32 0, align 4
@gmtrailer_summary_in_tree = internal global i8 1, align 1
@gmhdr_decode_timestamp_trailer = internal global i8 1, align 1
@.str.99 = private unnamed_addr constant [24 x i8] c", Port: %d, Timestamp: \00", align 1
@.str.100 = private unnamed_addr constant [18 x i8] c"%d:%02d:%02d.%09d\00", align 1
@.str.101 = private unnamed_addr constant [20 x i8] c"<Not representable>\00", align 1

; Function Attrs: null_pointer_is_valid sspstrong uwtable
define internal i32 @dissect_gmtimestamp_trailer(ptr noundef %0, ptr noundef %1, ptr noundef %2, ptr noundef %3) #0 {
  %5 = alloca i32, align 4
  %6 = alloca ptr, align 8
  %7 = alloca ptr, align 8
  %8 = alloca ptr, align 8
  %9 = alloca ptr, align 8
  %10 = alloca ptr, align 8
  %11 = alloca i32, align 4
  %12 = alloca i32, align 4
  %13 = alloca ptr, align 8
  %14 = alloca i32, align 4
  %15 = alloca i32, align 4
  %16 = alloca i32, align 4
  %17 = alloca i32, align 4
  %18 = alloca i16, align 2
  %19 = alloca %struct.nstime_t, align 8
  %20 = alloca ptr, align 8
  %21 = alloca i32, align 4
  store ptr %0, ptr %6, align 8
  store ptr %1, ptr %7, align 8
  store ptr %2, ptr %8, align 8
  store ptr %3, ptr %9, align 8
  call void @llvm.lifetime.start.p0(i64 8, ptr %10) #5
  call void @llvm.lifetime.start.p0(i64 4, ptr %11) #5
  call void @llvm.lifetime.start.p0(i64 4, ptr %12) #5
  store i32 18, ptr %12, align 4
  call void @llvm.lifetime.start.p0(i64 8, ptr %13) #5
  store ptr null, ptr %13, align 8
  call void @llvm.lifetime.start.p0(i64 4, ptr %14) #5
  store i32 0, ptr %14, align 4
  call void @llvm.lifetime.start.p0(i64 4, ptr %15) #5
  call void @llvm.lifetime.start.p0(i64 4, ptr %16) #5
  call void @llvm.lifetime.start.p0(i64 4, ptr %17) #5
  call void @llvm.lifetime.start.p0(i64 2, ptr %18) #5
  call void @llvm.lifetime.start.p0(i64 16, ptr %19) #5
  call void @llvm.lifetime.start.p0(i64 8, ptr %20) #5
  store ptr null, ptr %20, align 8
  %22 = load i8, ptr @gmhdr_decode_timestamp_trailer, align 1, !range !6, !noundef !7
  %23 = trunc i8 %22 to i1
  br i1 %23, label %25, label %24

24:                                               ; preds = %4
  store i32 0, ptr %5, align 4
  store i32 1, ptr %21, align 4
  br label %216

25:                                               ; preds = %4
  %26 = load ptr, ptr %6, align 8
  %27 = call i32 @tvb_captured_length(ptr noundef %26)
  store i32 %27, ptr %11, align 4
  %28 = load i32, ptr %11, align 4
  %29 = load i32, ptr %12, align 4
  %30 = icmp ult i32 %28, %29
  br i1 %30, label %31, label %32

31:                                               ; preds = %25
  store i32 0, ptr %5, align 4
  store i32 1, ptr %21, align 4
  br label %216

32:                                               ; preds = %25
  %33 = load ptr, ptr %6, align 8
  %34 = load i32, ptr %14, align 4
  %35 = call i32 @tvb_get_ntohl(ptr noundef %33, i32 noundef %34)
  store i32 %35, ptr %15, align 4
  %36 = load ptr, ptr %6, align 8
  %37 = load i32, ptr %11, align 4
  %38 = sub i32 %37, 4
  %39 = call i32 @tvb_get_ntohl(ptr noundef %36, i32 noundef %38)
  store i32 %39, ptr %16, align 4
  %40 = load ptr, ptr %6, align 8
  %41 = load i32, ptr %15, align 4
  %42 = xor i32 %41, -1
  %43 = and i32 %42, -16777216
  %44 = lshr i32 %43, 24
  %45 = load i32, ptr %15, align 4
  %46 = xor i32 %45, -1
  %47 = and i32 %46, 16711680
  %48 = lshr i32 %47, 8
  %49 = or i32 %44, %48
  %50 = load i32, ptr %15, align 4
  %51 = xor i32 %50, -1
  %52 = and i32 %51, 65280
  %53 = shl i32 %52, 8
  %54 = or i32 %49, %53
  %55 = load i32, ptr %15, align 4
  %56 = xor i32 %55, -1
  %57 = and i32 %56, 255
  %58 = shl i32 %57, 24
  %59 = or i32 %54, %58
  %60 = call i32 @crc32_ccitt_tvb_seed(ptr noundef %40, i32 noundef 14, i32 noundef %59)
  %61 = and i32 %60, -16777216
  %62 = lshr i32 %61, 24
  %63 = load ptr, ptr %6, align 8
  %64 = load i32, ptr %15, align 4
  %65 = xor i32 %64, -1
  %66 = and i32 %65, -16777216
  %67 = lshr i32 %66, 24
  %68 = load i32, ptr %15, align 4
  %69 = xor i32 %68, -1
  %70 = and i32 %69, 16711680
  %71 = lshr i32 %70, 8
  %72 = or i32 %67, %71
  %73 = load i32, ptr %15, align 4
  %74 = xor i32 %73, -1
  %75 = and i32 %74, 65280
  %76 = shl i32 %75, 8
  %77 = or i32 %72, %76
  %78 = load i32, ptr %15, align 4
  %79 = xor i32 %78, -1
  %80 = and i32 %79, 255
  %81 = shl i32 %80, 24
  %82 = or i32 %77, %81
  %83 = call i32 @crc32_ccitt_tvb_seed(ptr noundef %63, i32 noundef 14, i32 noundef %82)
  %84 = and i32 %83, 16711680
  %85 = lshr i32 %84, 8
  %86 = or i32 %62, %85
  %87 = load ptr, ptr %6, align 8
  %88 = load i32, ptr %15, align 4
  %89 = xor i32 %88, -1
  %90 = and i32 %89, -16777216
  %91 = lshr i32 %90, 24
  %92 = load i32, ptr %15, align 4
  %93 = xor i32 %92, -1
  %94 = and i32 %93, 16711680
  %95 = lshr i32 %94, 8
  %96 = or i32 %91, %95
  %97 = load i32, ptr %15, align 4
  %98 = xor i32 %97, -1
  %99 = and i32 %98, 65280
  %100 = shl i32 %99, 8
  %101 = or i32 %96, %100
  %102 = load i32, ptr %15, align 4
  %103 = xor i32 %102, -1
  %104 = and i32 %103, 255
  %105 = shl i32 %104, 24
  %106 = or i32 %101, %105
  %107 = call i32 @crc32_ccitt_tvb_seed(ptr noundef %87, i32 noundef 14, i32 noundef %106)
  %108 = and i32 %107, 65280
  %109 = shl i32 %108, 8
  %110 = or i32 %86, %109
  %111 = load ptr, ptr %6, align 8
  %112 = load i32, ptr %15, align 4
  %113 = xor i32 %112, -1
  %114 = and i32 %113, -16777216
  %115 = lshr i32 %114, 24
  %116 = load i32, ptr %15, align 4
  %117 = xor i32 %116, -1
  %118 = and i32 %117, 16711680
  %119 = lshr i32 %118, 8
  %120 = or i32 %115, %119
  %121 = load i32, ptr %15, align 4
  %122 = xor i32 %121, -1
  %123 = and i32 %122, 65280
  %124 = shl i32 %123, 8
  %125 = or i32 %120, %124
  %126 = load i32, ptr %15, align 4
  %127 = xor i32 %126, -1
  %128 = and i32 %127, 255
  %129 = shl i32 %128, 24
  %130 = or i32 %125, %129
  %131 = call i32 @crc32_ccitt_tvb_seed(ptr noundef %111, i32 noundef 14, i32 noundef %130)
  %132 = and i32 %131, 255
  %133 = shl i32 %132, 24
  %134 = or i32 %110, %133
  store i32 %134, ptr %17, align 4
  %135 = load i32, ptr %17, align 4
  %136 = load i32, ptr %16, align 4
  %137 = icmp ne i32 %135, %136
  br i1 %137, label %138, label %139

138:                                              ; preds = %32
  store i32 0, ptr %5, align 4
  store i32 1, ptr %21, align 4
  br label %216

139:                                              ; preds = %32
  %140 = load ptr, ptr %8, align 8
  %141 = icmp ne ptr %140, null
  br i1 %141, label %142, label %215

142:                                              ; preds = %139
  %143 = load ptr, ptr %8, align 8
  %144 = load i32, ptr @proto_gmtrailer, align 4
  %145 = load ptr, ptr %6, align 8
  %146 = load i32, ptr %14, align 4
  %147 = load i32, ptr %12, align 4
  %148 = sub i32 %147, 4
  %149 = call ptr @proto_tree_add_item(ptr noundef %143, i32 noundef %144, ptr noundef %145, i32 noundef %146, i32 noundef %148, i32 noundef 0)
  store ptr %149, ptr %10, align 8
  %150 = load i8, ptr @gmtrailer_summary_in_tree, align 1, !range !6, !noundef !7
  %151 = trunc i8 %150 to i1
  br i1 %151, label %152, label %194

152:                                              ; preds = %142
  %153 = load i32, ptr %14, align 4
  %154 = add i32 %153, 4
  store i32 %154, ptr %14, align 4
  %155 = load ptr, ptr %6, align 8
  %156 = load i32, ptr %14, align 4
  %157 = call zeroext i16 @tvb_get_ntohs(ptr noundef %155, i32 noundef %156)
  store i16 %157, ptr %18, align 2
  %158 = load ptr, ptr %10, align 8
  %159 = load i16, ptr %18, align 2
  %160 = zext i16 %159 to i32
  call void (ptr, ptr, ...) @proto_item_append_text(ptr noundef %158, ptr noundef @.str.99, i32 noundef %160)
  %161 = load i32, ptr %14, align 4
  %162 = add i32 %161, 2
  store i32 %162, ptr %14, align 4
  %163 = load ptr, ptr %6, align 8
  %164 = load i32, ptr %14, align 4
  %165 = call i32 @tvb_get_ntohl(ptr noundef %163, i32 noundef %164)
  %166 = zext i32 %165 to i64
  %167 = getelementptr inbounds nuw %struct.nstime_t, ptr %19, i32 0, i32 0
  store i64 %166, ptr %167, align 8
  %168 = load i32, ptr %14, align 4
  %169 = add i32 %168, 4
  store i32 %169, ptr %14, align 4
  %170 = load ptr, ptr %6, align 8
  %171 = load i32, ptr %14, align 4
  %172 = call i32 @tvb_get_ntohl(ptr noundef %170, i32 noundef %171)
  %173 = getelementptr inbounds nuw %struct.nstime_t, ptr %19, i32 0, i32 1
  store i32 %172, ptr %173, align 8
  %174 = getelementptr inbounds nuw %struct.nstime_t, ptr %19, i32 0, i32 0
  %175 = call ptr @localtime(ptr noundef %174) #5
  store ptr %175, ptr %20, align 8
  %176 = load ptr, ptr %20, align 8
  %177 = icmp ne ptr %176, null
  br i1 %177, label %178, label %191

178:                                              ; preds = %152
  %179 = load ptr, ptr %10, align 8
  %180 = load ptr, ptr %20, align 8
  %181 = getelementptr inbounds nuw %struct.tm, ptr %180, i32 0, i32 2
  %182 = load i32, ptr %181, align 8
  %183 = load ptr, ptr %20, align 8
  %184 = getelementptr inbounds nuw %struct.tm, ptr %183, i32 0, i32 1
  %185 = load i32, ptr %184, align 4
  %186 = load ptr, ptr %20, align 8
  %187 = getelementptr inbounds nuw %struct.tm, ptr %186, i32 0, i32 0
  %188 = load i32, ptr %187, align 8
  %189 = getelementptr inbounds nuw %struct.nstime_t, ptr %19, i32 0, i32 1
  %190 = load i32, ptr %189, align 8
  call void (ptr, ptr, ...) @proto_item_append_text(ptr noundef %179, ptr noundef @.str.100, i32 noundef %182, i32 noundef %185, i32 noundef %188, i32 noundef %190)
  br label %193

191:                                              ; preds = %152
  %192 = load ptr, ptr %10, align 8
  call void (ptr, ptr, ...) @proto_item_append_text(ptr noundef %192, ptr noundef @.str.101)
  br label %193

193:                                              ; preds = %191, %178
  br label %194

194:                                              ; preds = %193, %142
  store i32 0, ptr %14, align 4
  %195 = load ptr, ptr %10, align 8
  %196 = load i32, ptr @ett_gmtrailer, align 4
  %197 = call ptr @proto_item_add_subtree(ptr noundef %195, i32 noundef %196)
  store ptr %197, ptr %13, align 8
  %198 = load ptr, ptr %13, align 8
  %199 = load i32, ptr @hf_gmtrailer_origcrc, align 4
  %200 = load ptr, ptr %6, align 8
  %201 = load i32, ptr %14, align 4
  %202 = call ptr @proto_tree_add_item(ptr noundef %198, i32 noundef %199, ptr noundef %200, i32 noundef %201, i32 noundef 4, i32 noundef 0)
  %203 = load ptr, ptr %13, align 8
  %204 = load i32, ptr @hf_gmtrailer_portid, align 4
  %205 = load ptr, ptr %6, align 8
  %206 = load i32, ptr %14, align 4
  %207 = add i32 %206, 4
  %208 = call ptr @proto_tree_add_item(ptr noundef %203, i32 noundef %204, ptr noundef %205, i32 noundef %207, i32 noundef 2, i32 noundef 0)
  %209 = load ptr, ptr %13, align 8
  %210 = load i32, ptr @hf_gmtrailer_timestamp, align 4
  %211 = load ptr, ptr %6, align 8
  %212 = load i32, ptr %14, align 4
  %213 = add i32 %212, 6
  %214 = call ptr @proto_tree_add_item(ptr noundef %209, i32 noundef %210, ptr noundef %211, i32 noundef %213, i32 noundef 8, i32 noundef 0)
  br label %215

215:                                              ; preds = %194, %139
  store i32 14, ptr %5, align 4
  store i32 1, ptr %21, align 4
  br label %216

216:                                              ; preds = %215, %138, %31, %24
  call void @llvm.lifetime.end.p0(i64 8, ptr %20) #5
  call void @llvm.lifetime.end.p0(i64 16, ptr %19) #5
  call void @llvm.lifetime.end.p0(i64 2, ptr %18) #5
  call void @llvm.lifetime.end.p0(i64 4, ptr %17) #5
  call void @llvm.lifetime.end.p0(i64 4, ptr %16) #5
  call void @llvm.lifetime.end.p0(i64 4, ptr %15) #5
  call void @llvm.lifetime.end.p0(i64 4, ptr %14) #5
  call void @llvm.lifetime.end.p0(i64 8, ptr %13) #5
  call void @llvm.lifetime.end.p0(i64 4, ptr %12) #5
  call void @llvm.lifetime.end.p0(i64 4, ptr %11) #5
  call void @llvm.lifetime.end.p0(i64 8, ptr %10) #5
  %217 = load i32, ptr %5, align 4
  ret i32 %217
}

; Function Attrs: null_pointer_is_valid sspstrong uwtable
define internal zeroext i1 @dissect_gmtimestamp_trailer_heur(ptr noundef %0, ptr noundef %1, ptr noundef %2, ptr noundef %3) #0 {
  %5 = alloca ptr, align 8
  %6 = alloca ptr, align 8
  %7 = alloca ptr, align 8
  %8 = alloca ptr, align 8
  store ptr %0, ptr %5, align 8
  store ptr %1, ptr %6, align 8
  store ptr %2, ptr %7, align 8
  store ptr %3, ptr %8, align 8
  %9 = load ptr, ptr %5, align 8
  %10 = load ptr, ptr %6, align 8
  %11 = load ptr, ptr %7, align 8
  %12 = load ptr, ptr %8, align 8
  %13 = call i32 @dissect_gmtimestamp_trailer(ptr noundef %9, ptr noundef %10, ptr noundef %11, ptr noundef %12)
  %14 = icmp sgt i32 %13, 0
  ret i1 %14
}