; Function Attrs: null_pointer_is_valid sspstrong uwtable
define internal noundef zeroext i1 @dissect_gmtimestamp_trailer_heur(ptr noundef %0, ptr readnone captures(none) %1, ptr noundef %2, ptr readnone captures(none) %3) #0 {
  %5 = alloca %struct.nstime_t, align 8
  call void @llvm.lifetime.start.p0(i64 16, ptr nonnull %5) #5
  %6 = load i8, ptr @gmhdr_decode_timestamp_trailer, align 1, !range !6, !noundef !7
  %7 = trunc nuw i8 %6 to i1
  br i1 %7, label %8, label %dissect_gmtimestamp_trailer.exit

8:                                                ; preds = %4
  %9 = tail call i32 @tvb_captured_length(ptr noundef %0)
  %10 = icmp ult i32 %9, 18
  br i1 %10, label %dissect_gmtimestamp_trailer.exit, label %11

11:                                               ; preds = %8
  %12 = tail call i32 @tvb_get_ntohl(ptr noundef %0, i32 noundef 0)
  %13 = add i32 %9, -4
  %14 = tail call i32 @tvb_get_ntohl(ptr noundef %0, i32 noundef %13)
  %15 = xor i32 %12, -1
  %16 = tail call i32 @llvm.bswap.i32(i32 %15)
  %17 = tail call i32 @crc32_ccitt_tvb_seed(ptr noundef %0, i32 noundef 14, i32 noundef %16)
  %18 = lshr i32 %17, 24
  %19 = tail call i32 @crc32_ccitt_tvb_seed(ptr noundef %0, i32 noundef 14, i32 noundef %16)
  %20 = lshr i32 %19, 8
  %21 = and i32 %20, 65280
  %22 = or disjoint i32 %21, %18
  %23 = tail call i32 @crc32_ccitt_tvb_seed(ptr noundef %0, i32 noundef 14, i32 noundef %16)
  %24 = shl i32 %23, 8
  %25 = and i32 %24, 16711680
  %26 = or disjoint i32 %22, %25
  %27 = tail call i32 @crc32_ccitt_tvb_seed(ptr noundef %0, i32 noundef 14, i32 noundef %16)
  %28 = shl i32 %27, 24
  %29 = or disjoint i32 %26, %28
  %.not.i = icmp eq i32 %29, %14
  br i1 %.not.i, label %30, label %dissect_gmtimestamp_trailer.exit

30:                                               ; preds = %11
  %.not64.i = icmp eq ptr %2, null
  br i1 %.not64.i, label %dissect_gmtimestamp_trailer.exit, label %31

31:                                               ; preds = %30
  %32 = load i32, ptr @proto_gmtrailer, align 4
  %33 = tail call ptr @proto_tree_add_item(ptr noundef nonnull %2, i32 noundef %32, ptr noundef %0, i32 noundef 0, i32 noundef 14, i32 noundef 0)
  %34 = load i8, ptr @gmtrailer_summary_in_tree, align 1, !range !6, !noundef !7
  %35 = trunc nuw i8 %34 to i1
  br i1 %35, label %36, label %52

36:                                               ; preds = %31
  %37 = tail call zeroext i16 @tvb_get_ntohs(ptr noundef %0, i32 noundef 4)
  %38 = zext i16 %37 to i32
  tail call void (ptr, ptr, ...) @proto_item_append_text(ptr noundef %33, ptr noundef nonnull @.str.99, i32 noundef %38)
  %39 = tail call i32 @tvb_get_ntohl(ptr noundef %0, i32 noundef 6)
  %40 = zext i32 %39 to i64
  store i64 %40, ptr %5, align 8
  %41 = tail call i32 @tvb_get_ntohl(ptr noundef %0, i32 noundef 10)
  %42 = getelementptr inbounds nuw i8, ptr %5, i64 8
  store i32 %41, ptr %42, align 8
  %43 = call ptr @localtime(ptr noundef nonnull %5) #5
  %.not65.i = icmp eq ptr %43, null
  br i1 %.not65.i, label %51, label %44

44:                                               ; preds = %36
  %45 = getelementptr inbounds nuw i8, ptr %43, i64 8
  %46 = load i32, ptr %45, align 8
  %47 = getelementptr inbounds nuw i8, ptr %43, i64 4
  %48 = load i32, ptr %47, align 4
  %49 = load i32, ptr %43, align 8
  %50 = load i32, ptr %42, align 8
  call void (ptr, ptr, ...) @proto_item_append_text(ptr noundef %33, ptr noundef nonnull @.str.100, i32 noundef %46, i32 noundef %48, i32 noundef %49, i32 noundef %50)
  br label %52

51:                                               ; preds = %36
  call void (ptr, ptr, ...) @proto_item_append_text(ptr noundef %33, ptr noundef nonnull @.str.101)
  br label %52

52:                                               ; preds = %51, %44, %31
  %53 = load i32, ptr @ett_gmtrailer, align 4
  %54 = call ptr @proto_item_add_subtree(ptr noundef %33, i32 noundef %53)
  %55 = load i32, ptr @hf_gmtrailer_origcrc, align 4
  %56 = call ptr @proto_tree_add_item(ptr noundef %54, i32 noundef %55, ptr noundef %0, i32 noundef 0, i32 noundef 4, i32 noundef 0)
  %57 = load i32, ptr @hf_gmtrailer_portid, align 4
  %58 = call ptr @proto_tree_add_item(ptr noundef %54, i32 noundef %57, ptr noundef %0, i32 noundef 4, i32 noundef 2, i32 noundef 0)
  %59 = load i32, ptr @hf_gmtrailer_timestamp, align 4
  %60 = call ptr @proto_tree_add_item(ptr noundef %54, i32 noundef %59, ptr noundef %0, i32 noundef 6, i32 noundef 8, i32 noundef 0)
  br label %dissect_gmtimestamp_trailer.exit

dissect_gmtimestamp_trailer.exit:                 ; preds = %4, %8, %11, %30, %52
  %61 = phi i1 [ false, %4 ], [ false, %8 ], [ false, %11 ], [ true, %52 ], [ true, %30 ]
  call void @llvm.lifetime.end.p0(i64 16, ptr nonnull %5) #5
  ret i1 %61
}